target datalayout = "e-m:e-p270:32:32-p271:32:32-p272:64:64-i64:64-f80:128-n8:16:32:64-S128"
target triple = "x86_64-pc-linux-gnu"

@.str = private unnamed_addr constant [3 x i8] c"%d\00", align 1
@.str.1 = private unnamed_addr constant [3 x i8] c"%s\00", align 1
@.str.2 = private unnamed_addr constant [3 x i8] c"NO\00", align 1
@.str.3 = private unnamed_addr constant [4 x i8] c"%d\0A\00", align 1
@.str.4 = private unnamed_addr constant [3 x i8] c"%c\00", align 1
@.str.5 = private unnamed_addr constant [4 x i8] c"%c\0A\00", align 1

; Function Attrs: noinline nounwind uwtable
define dso_local i32 @main() #0 {
  %1 = alloca i32, align 4
  %2 = alloca i32, align 4
  %3 = alloca i32, align 4
  %4 = alloca i32, align 4
  %5 = alloca i32, align 4
  %6 = alloca i32, align 4
  %7 = alloca i32, align 4
  %8 = alloca [100 x i8], align 16
  %9 = alloca i32, align 4
  %10 = alloca [100 x i32], align 16
  store i32 0, i32* %1, align 4
  store i32 0, i32* %9, align 4
  %11 = bitcast [100 x i32]* %10 to i8*
  call void @llvm.memset.p0i8.i64(i8* align 16 %11, i8 0, i64 400, i1 false)
  %12 = call i32 (i8*, ...) @__isoc99_scanf(i8* getelementptr inbounds ([3 x i8], [3 x i8]* @.str, i64 0, i64 0), i32* %2)
  %13 = getelementptr inbounds [100 x i8], [100 x i8]* %8, i64 0, i64 0
  %14 = call i32 (i8*, ...) @__isoc99_scanf(i8* getelementptr inbounds ([3 x i8], [3 x i8]* @.str.1, i64 0, i64 0), i8* %13)
  store i32 0, i32* %3, align 4
  br label %15

15:                                               ; preds = %94, %0
  %16 = load i32, i32* %3, align 4
  %17 = sext i32 %16 to i64
  %18 = getelementptr inbounds [100 x i8], [100 x i8]* %8, i64 0, i64 0
  %19 = call i64 @strlen(i8* %18) #4
  %20 = load i32, i32* %2, align 4
  %21 = sext i32 %20 to i64
  %22 = sub i64 %19, %21
  %23 = icmp ult i64 %17, %22
  br i1 %23, label %24, label %97

24:                                               ; preds = %15
  %25 = load i32, i32* %3, align 4
  %26 = add nsw i32 %25, 1
  store i32 %26, i32* %4, align 4
  br label %27

27:                                               ; preds = %90, %24
  %28 = load i32, i32* %4, align 4
  %29 = sext i32 %28 to i64
  %30 = getelementptr inbounds [100 x i8], [100 x i8]* %8, i64 0, i64 0
  %31 = call i64 @strlen(i8* %30) #4
  %32 = load i32, i32* %2, align 4
  %33 = sext i32 %32 to i64
  %34 = sub i64 %31, %33
  %35 = add i64 %34, 1
  %36 = icmp ult i64 %29, %35
  br i1 %36, label %37, label %93

37:                                               ; preds = %27
  %38 = load i32, i32* %3, align 4
  %39 = sext i32 %38 to i64
  %40 = getelementptr inbounds [100 x i8], [100 x i8]* %8, i64 0, i64 %39
  %41 = load i8, i8* %40, align 1
  %42 = sext i8 %41 to i32
  %43 = load i32, i32* %4, align 4
  %44 = sext i32 %43 to i64
  %45 = getelementptr inbounds [100 x i8], [100 x i8]* %8, i64 0, i64 %44
  %46 = load i8, i8* %45, align 1
  %47 = sext i8 %46 to i32
  %48 = icmp eq i32 %42, %47
  br i1 %48, label %49, label %89

49:                                               ; preds = %37
  store i32 1, i32* %5, align 4
  br label %50

50:                                               ; preds = %74, %49
  %51 = load i32, i32* %5, align 4
  %52 = load i32, i32* %2, align 4
  %53 = icmp slt i32 %51, %52
  br i1 %53, label %54, label %77

54:                                               ; preds = %50
  %55 = load i32, i32* %3, align 4
  %56 = load i32, i32* %5, align 4
  %57 = add nsw i32 %55, %56
  %58 = sext i32 %57 to i64
  %59 = getelementptr inbounds [100 x i8], [100 x i8]* %8, i64 0, i64 %58
  %60 = load i8, i8* %59, align 1
  %61 = sext i8 %60 to i32
  %62 = load i32, i32* %4, align 4
  %63 = load i32, i32* %5, align 4
  %64 = add nsw i32 %62, %63
  %65 = sext i32 %64 to i64
  %66 = getelementptr inbounds [100 x i8], [100 x i8]* %8, i64 0, i64 %65
  %67 = load i8, i8* %66, align 1
  %68 = sext i8 %67 to i32
  %69 = icmp eq i32 %61, %68
  br i1 %69, label %70, label %73

70:                                               ; preds = %54
  %71 = load i32, i32* %9, align 4
  %72 = add nsw i32 %71, 1
  store i32 %72, i32* %9, align 4
  br label %73

73:                                               ; preds = %70, %54
  br label %74

74:                                               ; preds = %73
  %75 = load i32, i32* %5, align 4
  %76 = add nsw i32 %75, 1
  store i32 %76, i32* %5, align 4
  br label %50

77:                                               ; preds = %50
  %78 = load i32, i32* %9, align 4
  %79 = load i32, i32* %2, align 4
  %80 = sub nsw i32 %79, 1
  %81 = icmp eq i32 %78, %80
  br i1 %81, label %82, label %88

82:                                               ; preds = %77
  %83 = load i32, i32* %3, align 4
  %84 = sext i32 %83 to i64
  %85 = getelementptr inbounds [100 x i32], [100 x i32]* %10, i64 0, i64 %84
  %86 = load i32, i32* %85, align 4
  %87 = add nsw i32 %86, 1
  store i32 %87, i32* %85, align 4
  br label %88

88:                                               ; preds = %82, %77
  br label %89

89:                                               ; preds = %88, %37
  store i32 0, i32* %9, align 4
  br label %90

90:                                               ; preds = %89
  %91 = load i32, i32* %4, align 4
  %92 = add nsw i32 %91, 1
  store i32 %92, i32* %4, align 4
  br label %27

93:                                               ; preds = %27
  br label %94

94:                                               ; preds = %93
  %95 = load i32, i32* %3, align 4
  %96 = add nsw i32 %95, 1
  store i32 %96, i32* %3, align 4
  br label %15

97:                                               ; preds = %15
  store i32 0, i32* %7, align 4
  store i32 0, i32* %6, align 4
  br label %98

98:                                               ; preds = %120, %97
  %99 = load i32, i32* %6, align 4
  %100 = sext i32 %99 to i64
  %101 = getelementptr inbounds [100 x i8], [100 x i8]* %8, i64 0, i64 0
  %102 = call i64 @strlen(i8* %101) #4
  %103 = load i32, i32* %2, align 4
  %104 = sext i32 %103 to i64
  %105 = sub i64 %102, %104
  %106 = icmp ult i64 %100, %105
  br i1 %106, label %107, label %123

107:                                              ; preds = %98
  %108 = load i32, i32* %6, align 4
  %109 = sext i32 %108 to i64
  %110 = getelementptr inbounds [100 x i32], [100 x i32]* %10, i64 0, i64 %109
  %111 = load i32, i32* %110, align 4
  %112 = load i32, i32* %7, align 4
  %113 = icmp sgt i32 %111, %112
  br i1 %113, label %114, label %119

114:                                              ; preds = %107
  %115 = load i32, i32* %6, align 4
  %116 = sext i32 %115 to i64
  %117 = getelementptr inbounds [100 x i32], [100 x i32]* %10, i64 0, i64 %116
  %118 = load i32, i32* %117, align 4
  store i32 %118, i32* %7, align 4
  br label %119

119:                                              ; preds = %114, %107
  br label %120

120:                                              ; preds = %119
  %121 = load i32, i32* %6, align 4
  %122 = add nsw i32 %121, 1
  store i32 %122, i32* %6, align 4
  br label %98

123:                                              ; preds = %98
  %124 = load i32, i32* %7, align 4
  %125 = icmp eq i32 %124, 0
  br i1 %125, label %126, label %128

126:                                              ; preds = %123
  %127 = call i32 (i8*, ...) @printf(i8* getelementptr inbounds ([3 x i8], [3 x i8]* @.str.2, i64 0, i64 0))
  br label %182

128:                                              ; preds = %123
  %129 = load i32, i32* %7, align 4
  %130 = add nsw i32 %129, 1
  %131 = call i32 (i8*, ...) @printf(i8* getelementptr inbounds ([4 x i8], [4 x i8]* @.str.3, i64 0, i64 0), i32 %130)
  store i32 0, i32* %4, align 4
  br label %132

132:                                              ; preds = %178, %128
  %133 = load i32, i32* %4, align 4
  %134 = sext i32 %133 to i64
  %135 = getelementptr inbounds [100 x i8], [100 x i8]* %8, i64 0, i64 0
  %136 = call i64 @strlen(i8* %135) #4
  %137 = load i32, i32* %2, align 4
  %138 = sext i32 %137 to i64
  %139 = sub i64 %136, %138
  %140 = add i64 %139, 1
  %141 = icmp ult i64 %134, %140
  br i1 %141, label %142, label %181

142:                                              ; preds = %132
  %143 = load i32, i32* %4, align 4
  %144 = sext i32 %143 to i64
  %145 = getelementptr inbounds [100 x i32], [100 x i32]* %10, i64 0, i64 %144
  %146 = load i32, i32* %145, align 4
  %147 = load i32, i32* %7, align 4
  %148 = icmp eq i32 %146, %147
  br i1 %148, label %149, label %177

149:                                              ; preds = %142
  store i32 0, i32* %3, align 4
  br label %150

150:                                              ; preds = %164, %149
  %151 = load i32, i32* %3, align 4
  %152 = load i32, i32* %2, align 4
  %153 = sub nsw i32 %152, 1
  %154 = icmp slt i32 %151, %153
  br i1 %154, label %155, label %167

155:                                              ; preds = %150
  %156 = load i32, i32* %4, align 4
  %157 = load i32, i32* %3, align 4
  %158 = add nsw i32 %156, %157
  %159 = sext i32 %158 to i64
  %160 = getelementptr inbounds [100 x i8], [100 x i8]* %8, i64 0, i64 %159
  %161 = load i8, i8* %160, align 1
  %162 = sext i8 %161 to i32
  %163 = call i32 (i8*, ...) @printf(i8* getelementptr inbounds ([3 x i8], [3 x i8]* @.str.4, i64 0, i64 0), i32 %162)
  br label %164

164:                                              ; preds = %155
  %165 = load i32, i32* %3, align 4
  %166 = add nsw i32 %165, 1
  store i32 %166, i32* %3, align 4
  br label %150

167:                                              ; preds = %150
  %168 = load i32, i32* %4, align 4
  %169 = load i32, i32* %2, align 4
  %170 = add nsw i32 %168, %169
  %171 = sub nsw i32 %170, 1
  %172 = sext i32 %171 to i64
  %173 = getelementptr inbounds [100 x i8], [100 x i8]* %8, i64 0, i64 %172
  %174 = load i8, i8* %173, align 1
  %175 = sext i8 %174 to i32
  %176 = call i32 (i8*, ...) @printf(i8* getelementptr inbounds ([4 x i8], [4 x i8]* @.str.5, i64 0, i64 0), i32 %175)
  br label %177

177:                                              ; preds = %167, %142
  br label %178

178:                                              ; preds = %177
  %179 = load i32, i32* %4, align 4
  %180 = add nsw i32 %179, 1
  store i32 %180, i32* %4, align 4
  br label %132

181:                                              ; preds = %132
  br label %182

182:                                              ; preds = %181, %126
  %183 = load i32, i32* %1, align 4
  ret i32 %183
}